target datalayout = "e-m:e-p270:32:32-p271:32:32-p272:64:64-i64:64-i128:128-f80:128-n8:16:32:64-S128"
target triple = "x86_64-pc-linux-gnu"

%struct.SDL_WaylandSeat = type { ptr, ptr, ptr, ptr, ptr, %struct.wl_list, i32, i32, %struct.anon.1, %struct.anon.3, %struct.anon.6, %struct.anon.7, %struct.anon.8 }
%struct.wl_list = type { ptr, ptr }
%struct.anon.1 = type { ptr, ptr, ptr, ptr, ptr, %struct.SDL_WaylandKeyboardRepeat, i64, i16, i16, i32, i8, %struct.anon.2 }
%struct.SDL_WaylandKeyboardRepeat = type { i32, i32, i32, i8, i8, i32, i64, i64, i64, i32, [8 x i8] }
%struct.anon.2 = type { ptr, ptr, ptr, ptr, i32, i32, i32, i32, i32, i32, i32, i32, i32, i32, i32 }
%struct.anon.3 = type { ptr, ptr, ptr, ptr, ptr, ptr, ptr, ptr, i64, i32, i32, %struct.SDL_Point, i32, %struct.anon.4, %struct.anon.5 }
%struct.SDL_Point = type { i32, i32 }
%struct.anon.4 = type { i32, float, i32, float, i64, i32 }
%struct.anon.5 = type { ptr, ptr, ptr, i64, i64, i32 }
%struct.anon.6 = type { ptr, ptr, i64, %struct.wl_list }
%struct.anon.7 = type { ptr, %struct.SDL_Rect, i8, i8 }
%struct.SDL_Rect = type { i32, i32, i32, i32 }
%struct.anon.8 = type { ptr, %struct.wl_list }
%struct.SDL_CursorData = type { %union.anon.21, i8 }
%union.anon.21 = type { %struct.Wayland_CustomCursor }
%struct.Wayland_CustomCursor = type { ptr, i32, i32, %struct.wl_list }
%struct.Wayland_SystemCursor = type { ptr, i64, i32, i32 }
%struct.SDL_VideoDevice = type { ptr, ptr, ptr, ptr, ptr, ptr, ptr, ptr, ptr, ptr, ptr, ptr, ptr, ptr, ptr, ptr, ptr, ptr, ptr, ptr, ptr, ptr, ptr, ptr, ptr, ptr, ptr, ptr, ptr, ptr, ptr, ptr, ptr, ptr, ptr, ptr, ptr, ptr, ptr, ptr, ptr, ptr, ptr, ptr, ptr, ptr, ptr, ptr, ptr, ptr, ptr, ptr, ptr, ptr, ptr, ptr, ptr, ptr, ptr, ptr, ptr, ptr, ptr, ptr, ptr, ptr, ptr, ptr, ptr, ptr, ptr, ptr, ptr, ptr, ptr, ptr, ptr, ptr, ptr, ptr, ptr, ptr, ptr, ptr, ptr, ptr, ptr, ptr, ptr, ptr, ptr, ptr, ptr, ptr, ptr, ptr, ptr, i64, i8, i8, i8, ptr, i32, ptr, %struct.SDL_Rect, ptr, ptr, i32, ptr, ptr, ptr, ptr, i64, ptr, i8, i32, i32, %struct.anon, ptr, ptr, ptr, ptr, ptr, ptr, %struct.SDL_AtomicInt, %struct.SDL_AtomicInt, i8, %struct.anon.0, ptr, ptr, ptr, ptr, ptr }
%struct.anon = type { i32, i32, i32, i32, i32, i32, i32, i32, i32, i32, i32, i32, i32, i32, i32, i32, i32, i32, i32, i32, i32, i32, i32, i32, i32, i32, i32, i32, i32, [256 x i8], ptr }
%struct.SDL_AtomicInt = type { i32 }
%struct.anon.0 = type { ptr, ptr, i32, [256 x i8], ptr }
%struct.SDL_VideoData = type { i8, ptr, i32, ptr, ptr, ptr, ptr, i32, %struct.anon.9, ptr, ptr, ptr, ptr, ptr, ptr, ptr, ptr, ptr, ptr, ptr, ptr, ptr, ptr, ptr, ptr, ptr, ptr, ptr, ptr, ptr, ptr, %struct.wl_list, ptr, ptr, ptr, ptr, i32, i32, i8, i8 }
%struct.anon.9 = type { ptr }
%struct.SDL_Cursor = type { ptr, ptr }
%struct.Wayland_ScaledCustomCursor = type { %struct.Wayland_SHMBuffer, double, %struct.wl_list }
%struct.Wayland_SHMBuffer = type { ptr, ptr, i32 }

@WAYLAND_wl_proxy_destroy = external global ptr, align 8
@WAYLAND_wl_proxy_marshal_flags = external global ptr, align 8
@WAYLAND_wl_proxy_get_version = external global ptr, align 8

; Function Attrs: inlinehint nounwind uwtable
define internal void @wl_surface_attach(ptr noundef %0, ptr noundef %1, i32 noundef %2, i32 noundef %3) #3 {
  %5 = alloca ptr, align 8
  %6 = alloca ptr, align 8
  %7 = alloca i32, align 4
  %8 = alloca i32, align 4
  store ptr %0, ptr %5, align 8
  store ptr %1, ptr %6, align 8
  store i32 %2, ptr %7, align 4
  store i32 %3, ptr %8, align 4
  %9 = load ptr, ptr @WAYLAND_wl_proxy_marshal_flags, align 8
  %10 = load ptr, ptr %5, align 8
  %11 = load ptr, ptr @WAYLAND_wl_proxy_get_version, align 8
  %12 = load ptr, ptr %5, align 8
  %13 = call i32 %11(ptr noundef %12)
  %14 = load ptr, ptr %6, align 8
  %15 = load i32, ptr %7, align 4
  %16 = load i32, ptr %8, align 4
  %17 = call ptr (ptr, i32, ptr, i32, i32, ...) %9(ptr noundef %10, i32 noundef 1, ptr noundef null, i32 noundef %13, i32 noundef 0, ptr noundef %14, i32 noundef %15, i32 noundef %16)
  ret void
}

; Function Attrs: inlinehint nounwind uwtable
define internal void @wl_callback_destroy(ptr noundef %0) #3 {
  %2 = alloca ptr, align 8
  store ptr %0, ptr %2, align 8
  %3 = load ptr, ptr @WAYLAND_wl_proxy_destroy, align 8
  %4 = load ptr, ptr %2, align 8
  call void %3(ptr noundef %4)
  ret void
}

; Function Attrs: nounwind uwtable
define internal void @Wayland_FreeCursorData(ptr noundef %0) #0 {
  %2 = alloca ptr, align 8
  %3 = alloca ptr, align 8
  %4 = alloca ptr, align 8
  %5 = alloca ptr, align 8
  %6 = alloca ptr, align 8
  %7 = alloca ptr, align 8
  store ptr %0, ptr %2, align 8
  call void @llvm.lifetime.start.p0(i64 8, ptr %3) #7
  %8 = call ptr @SDL_GetVideoDevice()
  store ptr %8, ptr %3, align 8
  call void @llvm.lifetime.start.p0(i64 8, ptr %4) #7
  %9 = load ptr, ptr %3, align 8
  %10 = getelementptr inbounds nuw %struct.SDL_VideoDevice, ptr %9, i32 0, i32 128
  %11 = load ptr, ptr %10, align 8
  store ptr %11, ptr %4, align 8
  call void @llvm.lifetime.start.p0(i64 8, ptr %5) #7
  %12 = load ptr, ptr %4, align 8
  %13 = getelementptr inbounds nuw %struct.SDL_VideoData, ptr %12, i32 0, i32 31
  %14 = getelementptr inbounds nuw %struct.wl_list, ptr %13, i32 0, i32 1
  %15 = load ptr, ptr %14, align 8
  %16 = getelementptr inbounds i8, ptr %15, i64 -40
  store ptr %16, ptr %5, align 8
  br label %17

17:                                               ; preds = %65, %1
  %18 = load ptr, ptr %5, align 8
  %19 = getelementptr inbounds nuw %struct.SDL_WaylandSeat, ptr %18, i32 0, i32 5
  %20 = load ptr, ptr %4, align 8
  %21 = getelementptr inbounds nuw %struct.SDL_VideoData, ptr %20, i32 0, i32 31
  %22 = icmp ne ptr %19, %21
  br i1 %22, label %23, label %71

23:                                               ; preds = %17
  %24 = load ptr, ptr %5, align 8
  %25 = getelementptr inbounds nuw %struct.SDL_WaylandSeat, ptr %24, i32 0, i32 9
  %26 = getelementptr inbounds nuw %struct.anon.3, ptr %25, i32 0, i32 7
  %27 = load ptr, ptr %26, align 8
  %28 = load ptr, ptr %2, align 8
  %29 = icmp eq ptr %27, %28
  br i1 %29, label %30, label %64

30:                                               ; preds = %23
  %31 = load ptr, ptr %5, align 8
  %32 = getelementptr inbounds nuw %struct.SDL_WaylandSeat, ptr %31, i32 0, i32 9
  %33 = getelementptr inbounds nuw %struct.anon.3, ptr %32, i32 0, i32 14
  %34 = getelementptr inbounds nuw %struct.anon.5, ptr %33, i32 0, i32 2
  %35 = load ptr, ptr %34, align 8
  %36 = icmp ne ptr %35, null
  br i1 %36, label %37, label %47

37:                                               ; preds = %30
  %38 = load ptr, ptr %5, align 8
  %39 = getelementptr inbounds nuw %struct.SDL_WaylandSeat, ptr %38, i32 0, i32 9
  %40 = getelementptr inbounds nuw %struct.anon.3, ptr %39, i32 0, i32 14
  %41 = getelementptr inbounds nuw %struct.anon.5, ptr %40, i32 0, i32 2
  %42 = load ptr, ptr %41, align 8
  call void @wl_callback_destroy(ptr noundef %42)
  %43 = load ptr, ptr %5, align 8
  %44 = getelementptr inbounds nuw %struct.SDL_WaylandSeat, ptr %43, i32 0, i32 9
  %45 = getelementptr inbounds nuw %struct.anon.3, ptr %44, i32 0, i32 14
  %46 = getelementptr inbounds nuw %struct.anon.5, ptr %45, i32 0, i32 2
  store ptr null, ptr %46, align 8
  br label %47

47:                                               ; preds = %37, %30
  %48 = load ptr, ptr %5, align 8
  %49 = getelementptr inbounds nuw %struct.SDL_WaylandSeat, ptr %48, i32 0, i32 9
  %50 = getelementptr inbounds nuw %struct.anon.3, ptr %49, i32 0, i32 14
  %51 = getelementptr inbounds nuw %struct.anon.5, ptr %50, i32 0, i32 0
  %52 = load ptr, ptr %51, align 8
  %53 = icmp ne ptr %52, null
  br i1 %53, label %54, label %60

54:                                               ; preds = %47
  %55 = load ptr, ptr %5, align 8
  %56 = getelementptr inbounds nuw %struct.SDL_WaylandSeat, ptr %55, i32 0, i32 9
  %57 = getelementptr inbounds nuw %struct.anon.3, ptr %56, i32 0, i32 14
  %58 = getelementptr inbounds nuw %struct.anon.5, ptr %57, i32 0, i32 0
  %59 = load ptr, ptr %58, align 8
  call void @wl_surface_attach(ptr noundef %59, ptr noundef null, i32 noundef 0, i32 noundef 0)
  br label %60

60:                                               ; preds = %54, %47
  %61 = load ptr, ptr %5, align 8
  %62 = getelementptr inbounds nuw %struct.SDL_WaylandSeat, ptr %61, i32 0, i32 9
  %63 = getelementptr inbounds nuw %struct.anon.3, ptr %62, i32 0, i32 7
  store ptr null, ptr %63, align 8
  br label %64

64:                                               ; preds = %60, %23
  br label %65

65:                                               ; preds = %64
  %66 = load ptr, ptr %5, align 8
  %67 = getelementptr inbounds nuw %struct.SDL_WaylandSeat, ptr %66, i32 0, i32 5
  %68 = getelementptr inbounds nuw %struct.wl_list, ptr %67, i32 0, i32 1
  %69 = load ptr, ptr %68, align 8
  %70 = getelementptr inbounds i8, ptr %69, i64 -40
  store ptr %70, ptr %5, align 8
  br label %17, !llvm.loop !15

71:                                               ; preds = %17
  %72 = load ptr, ptr %2, align 8
  %73 = getelementptr inbounds nuw %struct.SDL_CursorData, ptr %72, i32 0, i32 1
  %74 = load i8, ptr %73, align 8, !range !5, !noundef !6
  %75 = trunc i8 %74 to i1
  br i1 %75, label %76, label %81

76:                                               ; preds = %71
  %77 = load ptr, ptr %2, align 8
  %78 = getelementptr inbounds nuw %struct.SDL_CursorData, ptr %77, i32 0, i32 0
  %79 = getelementptr inbounds nuw %struct.Wayland_SystemCursor, ptr %78, i32 0, i32 0
  %80 = load ptr, ptr %79, align 8
  call void @SDL_free_REAL(ptr noundef %80)
  br label %116

81:                                               ; preds = %71
  call void @llvm.lifetime.start.p0(i64 8, ptr %6) #7
  call void @llvm.lifetime.start.p0(i64 8, ptr %7) #7
  %82 = load ptr, ptr %2, align 8
  %83 = getelementptr inbounds nuw %struct.SDL_CursorData, ptr %82, i32 0, i32 0
  %84 = getelementptr inbounds nuw %struct.Wayland_CustomCursor, ptr %83, i32 0, i32 3
  %85 = getelementptr inbounds nuw %struct.wl_list, ptr %84, i32 0, i32 1
  %86 = load ptr, ptr %85, align 8
  %87 = getelementptr inbounds i8, ptr %86, i64 -32
  store ptr %87, ptr %6, align 8
  %88 = load ptr, ptr %6, align 8
  %89 = getelementptr inbounds nuw %struct.Wayland_ScaledCustomCursor, ptr %88, i32 0, i32 2
  %90 = getelementptr inbounds nuw %struct.wl_list, ptr %89, i32 0, i32 1
  %91 = load ptr, ptr %90, align 8
  %92 = getelementptr inbounds i8, ptr %91, i64 -32
  store ptr %92, ptr %7, align 8
  br label %93

93:                                               ; preds = %104, %81
  %94 = load ptr, ptr %6, align 8
  %95 = getelementptr inbounds nuw %struct.Wayland_ScaledCustomCursor, ptr %94, i32 0, i32 2
  %96 = load ptr, ptr %2, align 8
  %97 = getelementptr inbounds nuw %struct.SDL_CursorData, ptr %96, i32 0, i32 0
  %98 = getelementptr inbounds nuw %struct.Wayland_CustomCursor, ptr %97, i32 0, i32 3
  %99 = icmp ne ptr %95, %98
  br i1 %99, label %100, label %111

100:                                              ; preds = %93
  %101 = load ptr, ptr %6, align 8
  %102 = getelementptr inbounds nuw %struct.Wayland_ScaledCustomCursor, ptr %101, i32 0, i32 0
  call void @Wayland_ReleaseSHMBuffer(ptr noundef %102)
  %103 = load ptr, ptr %6, align 8
  call void @SDL_free_REAL(ptr noundef %103)
  br label %104

104:                                              ; preds = %100
  %105 = load ptr, ptr %7, align 8
  store ptr %105, ptr %6, align 8
  %106 = load ptr, ptr %6, align 8
  %107 = getelementptr inbounds nuw %struct.Wayland_ScaledCustomCursor, ptr %106, i32 0, i32 2
  %108 = getelementptr inbounds nuw %struct.wl_list, ptr %107, i32 0, i32 1
  %109 = load ptr, ptr %108, align 8
  %110 = getelementptr inbounds i8, ptr %109, i64 -32
  store ptr %110, ptr %7, align 8
  br label %93, !llvm.loop !16

111:                                              ; preds = %93
  %112 = load ptr, ptr %2, align 8
  %113 = getelementptr inbounds nuw %struct.SDL_CursorData, ptr %112, i32 0, i32 0
  %114 = getelementptr inbounds nuw %struct.Wayland_CustomCursor, ptr %113, i32 0, i32 0
  %115 = load ptr, ptr %114, align 8
  call void @SDL_DestroySurface_REAL(ptr noundef %115)
  call void @llvm.lifetime.end.p0(i64 8, ptr %7) #7
  call void @llvm.lifetime.end.p0(i64 8, ptr %6) #7
  br label %116

116:                                              ; preds = %111, %76
  call void @llvm.lifetime.end.p0(i64 8, ptr %5) #7
  call void @llvm.lifetime.end.p0(i64 8, ptr %4) #7
  call void @llvm.lifetime.end.p0(i64 8, ptr %3) #7
  ret void
}

; Function Attrs: nounwind uwtable
define internal void @Wayland_FreeCursor(ptr noundef %0) #0 {
  %2 = alloca ptr, align 8
  store ptr %0, ptr %2, align 8
  %3 = load ptr, ptr %2, align 8
  %4 = icmp ne ptr %3, null
  br i1 %4, label %6, label %5

5:                                                ; preds = %1
  br label %20

6:                                                ; preds = %1
  %7 = load ptr, ptr %2, align 8
  %8 = getelementptr inbounds nuw %struct.SDL_Cursor, ptr %7, i32 0, i32 1
  %9 = load ptr, ptr %8, align 8
  %10 = icmp ne ptr %9, null
  br i1 %10, label %12, label %11

11:                                               ; preds = %6
  br label %20

12:                                               ; preds = %6
  %13 = load ptr, ptr %2, align 8
  %14 = getelementptr inbounds nuw %struct.SDL_Cursor, ptr %13, i32 0, i32 1
  %15 = load ptr, ptr %14, align 8
  call void @Wayland_FreeCursorData(ptr noundef %15)
  %16 = load ptr, ptr %2, align 8
  %17 = getelementptr inbounds nuw %struct.SDL_Cursor, ptr %16, i32 0, i32 1
  %18 = load ptr, ptr %17, align 8
  call void @SDL_free_REAL(ptr noundef %18)
  %19 = load ptr, ptr %2, align 8
  call void @SDL_free_REAL(ptr noundef %19)
  br label %20

20:                                               ; preds = %12, %11, %5
  ret void
}