; Function Attrs: nounwind uwtable
define internal void @Wayland_FreeCursor(ptr noundef %0) #0 {
  %.not = icmp eq ptr %0, null
  br i1 %.not, label %41, label %2

2:                                                ; preds = %1
  %3 = getelementptr inbounds nuw i8, ptr %0, i64 8
  %4 = load ptr, ptr %3, align 8
  %.not6 = icmp eq ptr %4, null
  br i1 %.not6, label %41, label %5

5:                                                ; preds = %2
  %6 = tail call ptr @SDL_GetVideoDevice() #6
  %7 = getelementptr inbounds nuw i8, ptr %6, i64 1656
  %8 = load ptr, ptr %7, align 8
  %9 = getelementptr inbounds nuw i8, ptr %8, i64 248
  %10 = getelementptr inbounds nuw i8, ptr %8, i64 256
  %.pn35.i = load ptr, ptr %10, align 8
  %.not36.i = icmp eq ptr %.pn35.i, %9
  br i1 %.not36.i, label %._crit_edge.i, label %.lr.ph.i

.lr.ph.i:                                         ; preds = %5, %28
  %.pn37.i = phi ptr [ %.pn.i, %28 ], [ %.pn35.i, %5 ]
  %11 = getelementptr inbounds nuw i8, ptr %.pn37.i, i64 288
  %12 = load ptr, ptr %11, align 8
  %13 = icmp eq ptr %12, %4
  br i1 %13, label %14, label %28

14:                                               ; preds = %.lr.ph.i
  %15 = getelementptr inbounds nuw i8, ptr %.pn37.i, i64 360
  %16 = getelementptr inbounds nuw i8, ptr %.pn37.i, i64 376
  %17 = load ptr, ptr %16, align 8
  %.not33.i = icmp eq ptr %17, null
  br i1 %.not33.i, label %20, label %18

18:                                               ; preds = %14
  %19 = load ptr, ptr @WAYLAND_wl_proxy_destroy, align 8
  tail call void %19(ptr noundef nonnull %17) #6
  store ptr null, ptr %16, align 8
  br label %20

20:                                               ; preds = %18, %14
  %21 = load ptr, ptr %15, align 8
  %.not34.i = icmp eq ptr %21, null
  br i1 %.not34.i, label %27, label %22

22:                                               ; preds = %20
  %23 = load ptr, ptr @WAYLAND_wl_proxy_marshal_flags, align 8
  %24 = load ptr, ptr @WAYLAND_wl_proxy_get_version, align 8
  %25 = tail call i32 %24(ptr noundef nonnull %21) #6
  %26 = tail call ptr (ptr, i32, ptr, i32, i32, ...) %23(ptr noundef nonnull %21, i32 noundef 1, ptr noundef null, i32 noundef %25, i32 noundef 0, ptr noundef null, i32 noundef 0, i32 noundef 0) #6
  br label %27

27:                                               ; preds = %22, %20
  store ptr null, ptr %11, align 8
  br label %28

28:                                               ; preds = %27, %.lr.ph.i
  %29 = getelementptr inbounds nuw i8, ptr %.pn37.i, i64 8
  %.pn.i = load ptr, ptr %29, align 8
  %.not.i = icmp eq ptr %.pn.i, %9
  br i1 %.not.i, label %._crit_edge.i, label %.lr.ph.i, !llvm.loop !7

._crit_edge.i:                                    ; preds = %28, %5
  %30 = getelementptr inbounds nuw i8, ptr %4, i64 32
  %31 = load i8, ptr %30, align 8, !range !8, !noundef !9
  %32 = trunc nuw i8 %31 to i1
  br i1 %32, label %33, label %35

33:                                               ; preds = %._crit_edge.i
  %34 = load ptr, ptr %4, align 8
  tail call void @SDL_free_REAL(ptr noundef %34) #6
  br label %Wayland_FreeCursorData.exit

35:                                               ; preds = %._crit_edge.i
  %36 = getelementptr inbounds nuw i8, ptr %4, i64 16
  %37 = getelementptr inbounds nuw i8, ptr %4, i64 24
  %38 = load ptr, ptr %37, align 8
  %.not3038.i = icmp eq ptr %38, %36
  br i1 %.not3038.i, label %._crit_edge42.i, label %.lr.ph41.i

.lr.ph41.i:                                       ; preds = %35, %.lr.ph41.i
  %.pn3139.i = phi ptr [ %.pn29.i, %.lr.ph41.i ], [ %38, %35 ]
  %.pn29.in.i = getelementptr inbounds nuw i8, ptr %.pn3139.i, i64 8
  %.024.i = getelementptr inbounds i8, ptr %.pn3139.i, i64 -32
  %.pn29.i = load ptr, ptr %.pn29.in.i, align 8
  tail call void @Wayland_ReleaseSHMBuffer(ptr noundef nonnull %.024.i) #6
  tail call void @SDL_free_REAL(ptr noundef nonnull %.024.i) #6
  %.not30.i = icmp eq ptr %.pn29.i, %36
  br i1 %.not30.i, label %._crit_edge42.i, label %.lr.ph41.i, !llvm.loop !10

._crit_edge42.i:                                  ; preds = %.lr.ph41.i, %35
  %39 = load ptr, ptr %4, align 8
  tail call void @SDL_DestroySurface_REAL(ptr noundef %39) #6
  br label %Wayland_FreeCursorData.exit

Wayland_FreeCursorData.exit:                      ; preds = %33, %._crit_edge42.i
  %40 = load ptr, ptr %3, align 8
  tail call void @SDL_free_REAL(ptr noundef %40) #6
  tail call void @SDL_free_REAL(ptr noundef nonnull %0) #6
  br label %41

41:                                               ; preds = %2, %1, %Wayland_FreeCursorData.exit
  ret void
}